target datalayout = "e-m:e-p270:32:32-p271:32:32-p272:64:64-i64:64-i128:128-f80:128-n8:16:32:64-S128"
target triple = "x86_64-pc-linux-gnu"

%"class.std::vector.3" = type { %"struct.std::_Vector_base.4" }
%"struct.std::_Vector_base.4" = type { %"struct.std::_Vector_base<int, std::allocator<int>>::_Vector_impl" }
%"struct.std::_Vector_base<int, std::allocator<int>>::_Vector_impl" = type { %"struct.std::_Vector_base<int, std::allocator<int>>::_Vector_impl_data" }
%"struct.std::_Vector_base<int, std::allocator<int>>::_Vector_impl_data" = type { ptr, ptr, ptr }
%"struct.(anonymous namespace)::mutate_queue_t" = type { %"class.Yosys::hashlib::pool.333" }
%"class.Yosys::hashlib::pool.333" = type <{ %"class.std::vector.3", %"class.std::vector.334", [8 x i8] }>
%"class.std::vector.334" = type { %"struct.std::_Vector_base.335" }
%"struct.std::_Vector_base.335" = type { %"struct.std::_Vector_base<Yosys::hashlib::pool<(anonymous namespace)::mutate_t *>::entry_t, std::allocator<Yosys::hashlib::pool<(anonymous namespace)::mutate_t *>::entry_t>>::_Vector_impl" }
%"struct.std::_Vector_base<Yosys::hashlib::pool<(anonymous namespace)::mutate_t *>::entry_t, std::allocator<Yosys::hashlib::pool<(anonymous namespace)::mutate_t *>::entry_t>>::_Vector_impl" = type { %"struct.std::_Vector_base<Yosys::hashlib::pool<(anonymous namespace)::mutate_t *>::entry_t, std::allocator<Yosys::hashlib::pool<(anonymous namespace)::mutate_t *>::entry_t>>::_Vector_impl_data" }
%"struct.std::_Vector_base<Yosys::hashlib::pool<(anonymous namespace)::mutate_t *>::entry_t, std::allocator<Yosys::hashlib::pool<(anonymous namespace)::mutate_t *>::entry_t>>::_Vector_impl_data" = type { ptr, ptr, ptr }

; Function Attrs: mustprogress nounwind uwtable
define linkonce_odr void @_ZNSt15__new_allocatorIiE10deallocateEPim(ptr noundef nonnull align 1 dereferenceable(1) %0, ptr noundef %1, i64 noundef %2) #6 comdat align 2 {
  %4 = alloca ptr, align 8
  %5 = alloca ptr, align 8
  %6 = alloca i64, align 8
  store ptr %0, ptr %4, align 8, !tbaa !213
  store ptr %1, ptr %5, align 8, !tbaa !232
  store i64 %2, ptr %6, align 8, !tbaa !27
  %7 = load ptr, ptr %5, align 8, !tbaa !232
  %8 = load i64, ptr %6, align 8, !tbaa !27
  %9 = mul i64 %8, 4
  call void @_ZdlPvm(ptr noundef %7, i64 noundef %9) #23
  ret void
}

; Function Attrs: mustprogress nounwind uwtable
define internal void @_ZNSt15__new_allocatorIN5Yosys7hashlib4poolIPN12_GLOBAL__N_18mutate_tENS1_8hash_opsIS5_EEE7entry_tEE10deallocateEPS9_m(ptr noundef nonnull align 1 dereferenceable(1) %0, ptr noundef %1, i64 noundef %2) #6 align 2 {
  %4 = alloca ptr, align 8
  %5 = alloca ptr, align 8
  %6 = alloca i64, align 8
  store ptr %0, ptr %4, align 8, !tbaa !1116
  store ptr %1, ptr %5, align 8, !tbaa !1123
  store i64 %2, ptr %6, align 8, !tbaa !27
  %7 = load ptr, ptr %5, align 8, !tbaa !1123
  %8 = load i64, ptr %6, align 8, !tbaa !27
  %9 = mul i64 %8, 16
  call void @_ZdlPvm(ptr noundef %7, i64 noundef %9) #23
  ret void
}

; Function Attrs: mustprogress uwtable
define linkonce_odr void @_ZNSt16allocator_traitsISaIiEE10deallocateERS0_Pim(ptr noundef nonnull align 1 dereferenceable(1) %0, ptr noundef %1, i64 noundef %2) #4 comdat align 2 {
  %4 = alloca ptr, align 8
  %5 = alloca ptr, align 8
  %6 = alloca i64, align 8
  store ptr %0, ptr %4, align 8, !tbaa !211
  store ptr %1, ptr %5, align 8, !tbaa !232
  store i64 %2, ptr %6, align 8, !tbaa !27
  %7 = load ptr, ptr %4, align 8, !tbaa !211
  %8 = load ptr, ptr %5, align 8, !tbaa !232
  %9 = load i64, ptr %6, align 8, !tbaa !27
  call void @_ZNSt15__new_allocatorIiE10deallocateEPim(ptr noundef nonnull align 1 dereferenceable(1) %7, ptr noundef %8, i64 noundef %9)
  ret void
}

; Function Attrs: mustprogress nounwind uwtable
define linkonce_odr void @_ZNSt12_Destroy_auxILb1EE9__destroyIPiEEvT_S3_(ptr noundef %0, ptr noundef %1) #6 comdat align 2 {
  %3 = alloca ptr, align 8
  %4 = alloca ptr, align 8
  store ptr %0, ptr %3, align 8, !tbaa !232
  store ptr %1, ptr %4, align 8, !tbaa !232
  ret void
}

; Function Attrs: mustprogress uwtable
define internal void @_ZNSt16allocator_traitsISaIN5Yosys7hashlib4poolIPN12_GLOBAL__N_18mutate_tENS1_8hash_opsIS5_EEE7entry_tEEE10deallocateERSA_PS9_m(ptr noundef nonnull align 1 dereferenceable(1) %0, ptr noundef %1, i64 noundef %2) #4 align 2 {
  %4 = alloca ptr, align 8
  %5 = alloca ptr, align 8
  %6 = alloca i64, align 8
  store ptr %0, ptr %4, align 8, !tbaa !1114
  store ptr %1, ptr %5, align 8, !tbaa !1123
  store i64 %2, ptr %6, align 8, !tbaa !27
  %7 = load ptr, ptr %4, align 8, !tbaa !1114
  %8 = load ptr, ptr %5, align 8, !tbaa !1123
  %9 = load i64, ptr %6, align 8, !tbaa !27
  call void @_ZNSt15__new_allocatorIN5Yosys7hashlib4poolIPN12_GLOBAL__N_18mutate_tENS1_8hash_opsIS5_EEE7entry_tEE10deallocateEPS9_m(ptr noundef nonnull align 1 dereferenceable(1) %7, ptr noundef %8, i64 noundef %9)
  ret void
}

; Function Attrs: mustprogress nounwind uwtable
define internal void @_ZNSt12_Destroy_auxILb1EE9__destroyIPN5Yosys7hashlib4poolIPN12_GLOBAL__N_18mutate_tENS3_8hash_opsIS7_EEE7entry_tEEEvT_SD_(ptr noundef %0, ptr noundef %1) #6 align 2 {
  %3 = alloca ptr, align 8
  %4 = alloca ptr, align 8
  store ptr %0, ptr %3, align 8, !tbaa !1123
  store ptr %1, ptr %4, align 8, !tbaa !1123
  ret void
}

; Function Attrs: mustprogress nounwind uwtable
define linkonce_odr void @_ZNSt15__new_allocatorIiED2Ev(ptr noundef nonnull align 1 dereferenceable(1) %0) unnamed_addr #6 comdat align 2 {
  %2 = alloca ptr, align 8
  store ptr %0, ptr %2, align 8, !tbaa !213
  ret void
}

; Function Attrs: mustprogress uwtable
define linkonce_odr void @_ZNSt12_Vector_baseIiSaIiEE13_M_deallocateEPim(ptr noundef nonnull align 8 dereferenceable(24) %0, ptr noundef %1, i64 noundef %2) #4 comdat align 2 {
  %4 = alloca ptr, align 8
  %5 = alloca ptr, align 8
  %6 = alloca i64, align 8
  store ptr %0, ptr %4, align 8, !tbaa !207
  store ptr %1, ptr %5, align 8, !tbaa !232
  store i64 %2, ptr %6, align 8, !tbaa !27
  %7 = load ptr, ptr %4, align 8
  %8 = load ptr, ptr %5, align 8, !tbaa !232
  %9 = icmp ne ptr %8, null
  br i1 %9, label %10, label %14

10:                                               ; preds = %3
  %11 = getelementptr inbounds nuw %"struct.std::_Vector_base.4", ptr %7, i32 0, i32 0
  %12 = load ptr, ptr %5, align 8, !tbaa !232
  %13 = load i64, ptr %6, align 8, !tbaa !27
  call void @_ZNSt16allocator_traitsISaIiEE10deallocateERS0_Pim(ptr noundef nonnull align 1 dereferenceable(1) %11, ptr noundef %12, i64 noundef %13)
  br label %14

14:                                               ; preds = %10, %3
  ret void
}

; Function Attrs: inlinehint mustprogress uwtable
define linkonce_odr void @_ZSt8_DestroyIPiEvT_S1_(ptr noundef %0, ptr noundef %1) #9 comdat {
  %3 = alloca ptr, align 8
  %4 = alloca ptr, align 8
  store ptr %0, ptr %3, align 8, !tbaa !232
  store ptr %1, ptr %4, align 8, !tbaa !232
  %5 = load ptr, ptr %3, align 8, !tbaa !232
  %6 = load ptr, ptr %4, align 8, !tbaa !232
  call void @_ZNSt12_Destroy_auxILb1EE9__destroyIPiEEvT_S3_(ptr noundef %5, ptr noundef %6)
  ret void
}

; Function Attrs: mustprogress nounwind uwtable
define internal void @_ZNSt15__new_allocatorIN5Yosys7hashlib4poolIPN12_GLOBAL__N_18mutate_tENS1_8hash_opsIS5_EEE7entry_tEED2Ev(ptr noundef nonnull align 1 dereferenceable(1) %0) unnamed_addr #6 align 2 {
  %2 = alloca ptr, align 8
  store ptr %0, ptr %2, align 8, !tbaa !1116
  ret void
}

; Function Attrs: mustprogress uwtable
define internal void @_ZNSt12_Vector_baseIN5Yosys7hashlib4poolIPN12_GLOBAL__N_18mutate_tENS1_8hash_opsIS5_EEE7entry_tESaIS9_EE13_M_deallocateEPS9_m(ptr noundef nonnull align 8 dereferenceable(24) %0, ptr noundef %1, i64 noundef %2) #4 align 2 {
  %4 = alloca ptr, align 8
  %5 = alloca ptr, align 8
  %6 = alloca i64, align 8
  store ptr %0, ptr %4, align 8, !tbaa !1110
  store ptr %1, ptr %5, align 8, !tbaa !1123
  store i64 %2, ptr %6, align 8, !tbaa !27
  %7 = load ptr, ptr %4, align 8
  %8 = load ptr, ptr %5, align 8, !tbaa !1123
  %9 = icmp ne ptr %8, null
  br i1 %9, label %10, label %14

10:                                               ; preds = %3
  %11 = getelementptr inbounds nuw %"struct.std::_Vector_base.335", ptr %7, i32 0, i32 0
  %12 = load ptr, ptr %5, align 8, !tbaa !1123
  %13 = load i64, ptr %6, align 8, !tbaa !27
  call void @_ZNSt16allocator_traitsISaIN5Yosys7hashlib4poolIPN12_GLOBAL__N_18mutate_tENS1_8hash_opsIS5_EEE7entry_tEEE10deallocateERSA_PS9_m(ptr noundef nonnull align 1 dereferenceable(1) %11, ptr noundef %12, i64 noundef %13)
  br label %14

14:                                               ; preds = %10, %3
  ret void
}

; Function Attrs: inlinehint mustprogress uwtable
define internal void @_ZSt8_DestroyIPN5Yosys7hashlib4poolIPN12_GLOBAL__N_18mutate_tENS1_8hash_opsIS5_EEE7entry_tEEvT_SB_(ptr noundef %0, ptr noundef %1) #9 {
  %3 = alloca ptr, align 8
  %4 = alloca ptr, align 8
  store ptr %0, ptr %3, align 8, !tbaa !1123
  store ptr %1, ptr %4, align 8, !tbaa !1123
  %5 = load ptr, ptr %3, align 8, !tbaa !1123
  %6 = load ptr, ptr %4, align 8, !tbaa !1123
  call void @_ZNSt12_Destroy_auxILb1EE9__destroyIPN5Yosys7hashlib4poolIPN12_GLOBAL__N_18mutate_tENS3_8hash_opsIS7_EEE7entry_tEEEvT_SD_(ptr noundef %5, ptr noundef %6)
  ret void
}

; Function Attrs: mustprogress nounwind uwtable
define linkonce_odr void @_ZNSt12_Vector_baseIiSaIiEED2Ev(ptr noundef nonnull align 8 dereferenceable(24) %0) unnamed_addr #6 comdat align 2 personality ptr @__gxx_personality_v0 {
  %2 = alloca ptr, align 8
  store ptr %0, ptr %2, align 8, !tbaa !207
  %3 = load ptr, ptr %2, align 8
  %4 = getelementptr inbounds nuw %"struct.std::_Vector_base.4", ptr %3, i32 0, i32 0
  %5 = getelementptr inbounds nuw %"struct.std::_Vector_base<int, std::allocator<int>>::_Vector_impl_data", ptr %4, i32 0, i32 0
  %6 = load ptr, ptr %5, align 8, !tbaa !228
  %7 = getelementptr inbounds nuw %"struct.std::_Vector_base.4", ptr %3, i32 0, i32 0
  %8 = getelementptr inbounds nuw %"struct.std::_Vector_base<int, std::allocator<int>>::_Vector_impl_data", ptr %7, i32 0, i32 2
  %9 = load ptr, ptr %8, align 8, !tbaa !233
  %10 = getelementptr inbounds nuw %"struct.std::_Vector_base.4", ptr %3, i32 0, i32 0
  %11 = getelementptr inbounds nuw %"struct.std::_Vector_base<int, std::allocator<int>>::_Vector_impl_data", ptr %10, i32 0, i32 0
  %12 = load ptr, ptr %11, align 8, !tbaa !228
  %13 = ptrtoint ptr %9 to i64
  %14 = ptrtoint ptr %12 to i64
  %15 = sub i64 %13, %14
  %16 = sdiv exact i64 %15, 4
  invoke void @_ZNSt12_Vector_baseIiSaIiEE13_M_deallocateEPim(ptr noundef nonnull align 8 dereferenceable(24) %3, ptr noundef %6, i64 noundef %16)
          to label %17 unwind label %19

17:                                               ; preds = %1
  %18 = getelementptr inbounds nuw %"struct.std::_Vector_base.4", ptr %3, i32 0, i32 0
  call void @_ZNSt15__new_allocatorIiED2Ev(ptr noundef nonnull align 8 dereferenceable(24) %18) #3
  ret void

19:                                               ; preds = %1
  %20 = landingpad { ptr, i32 }
          catch ptr null
  %21 = extractvalue { ptr, i32 } %20, 0
  call void @__clang_call_terminate(ptr %21) #22
  unreachable
}

; Function Attrs: inlinehint mustprogress uwtable
define linkonce_odr void @_ZSt8_DestroyIPiiEvT_S1_RSaIT0_E(ptr noundef %0, ptr noundef %1, ptr noundef nonnull align 1 dereferenceable(1) %2) #9 comdat {
  %4 = alloca ptr, align 8
  %5 = alloca ptr, align 8
  %6 = alloca ptr, align 8
  store ptr %0, ptr %4, align 8, !tbaa !232
  store ptr %1, ptr %5, align 8, !tbaa !232
  store ptr %2, ptr %6, align 8, !tbaa !211
  %7 = load ptr, ptr %4, align 8, !tbaa !232
  %8 = load ptr, ptr %5, align 8, !tbaa !232
  call void @_ZSt8_DestroyIPiEvT_S1_(ptr noundef %7, ptr noundef %8)
  ret void
}

; Function Attrs: mustprogress nounwind uwtable
define linkonce_odr noundef nonnull align 1 dereferenceable(1) ptr @_ZNSt12_Vector_baseIiSaIiEE19_M_get_Tp_allocatorEv(ptr noundef nonnull align 8 dereferenceable(24) %0) #6 comdat align 2 {
  %2 = alloca ptr, align 8
  store ptr %0, ptr %2, align 8, !tbaa !207
  %3 = load ptr, ptr %2, align 8
  %4 = getelementptr inbounds nuw %"struct.std::_Vector_base.4", ptr %3, i32 0, i32 0
  ret ptr %4
}

; Function Attrs: noinline noreturn nounwind uwtable
define linkonce_odr hidden void @__clang_call_terminate(ptr noundef %0) #11 comdat {
  %2 = call ptr @__cxa_begin_catch(ptr %0) #3
  call void @_ZSt9terminatev() #22
  unreachable
}

; Function Attrs: mustprogress nounwind uwtable
define internal void @_ZNSt12_Vector_baseIN5Yosys7hashlib4poolIPN12_GLOBAL__N_18mutate_tENS1_8hash_opsIS5_EEE7entry_tESaIS9_EED2Ev(ptr noundef nonnull align 8 dereferenceable(24) %0) unnamed_addr #6 align 2 personality ptr @__gxx_personality_v0 {
  %2 = alloca ptr, align 8
  store ptr %0, ptr %2, align 8, !tbaa !1110
  %3 = load ptr, ptr %2, align 8
  %4 = getelementptr inbounds nuw %"struct.std::_Vector_base.335", ptr %3, i32 0, i32 0
  %5 = getelementptr inbounds nuw %"struct.std::_Vector_base<Yosys::hashlib::pool<(anonymous namespace)::mutate_t *>::entry_t, std::allocator<Yosys::hashlib::pool<(anonymous namespace)::mutate_t *>::entry_t>>::_Vector_impl_data", ptr %4, i32 0, i32 0
  %6 = load ptr, ptr %5, align 8, !tbaa !1108
  %7 = getelementptr inbounds nuw %"struct.std::_Vector_base.335", ptr %3, i32 0, i32 0
  %8 = getelementptr inbounds nuw %"struct.std::_Vector_base<Yosys::hashlib::pool<(anonymous namespace)::mutate_t *>::entry_t, std::allocator<Yosys::hashlib::pool<(anonymous namespace)::mutate_t *>::entry_t>>::_Vector_impl_data", ptr %7, i32 0, i32 2
  %9 = load ptr, ptr %8, align 8, !tbaa !1122
  %10 = getelementptr inbounds nuw %"struct.std::_Vector_base.335", ptr %3, i32 0, i32 0
  %11 = getelementptr inbounds nuw %"struct.std::_Vector_base<Yosys::hashlib::pool<(anonymous namespace)::mutate_t *>::entry_t, std::allocator<Yosys::hashlib::pool<(anonymous namespace)::mutate_t *>::entry_t>>::_Vector_impl_data", ptr %10, i32 0, i32 0
  %12 = load ptr, ptr %11, align 8, !tbaa !1108
  %13 = ptrtoint ptr %9 to i64
  %14 = ptrtoint ptr %12 to i64
  %15 = sub i64 %13, %14
  %16 = sdiv exact i64 %15, 16
  invoke void @_ZNSt12_Vector_baseIN5Yosys7hashlib4poolIPN12_GLOBAL__N_18mutate_tENS1_8hash_opsIS5_EEE7entry_tESaIS9_EE13_M_deallocateEPS9_m(ptr noundef nonnull align 8 dereferenceable(24) %3, ptr noundef %6, i64 noundef %16)
          to label %17 unwind label %19

17:                                               ; preds = %1
  %18 = getelementptr inbounds nuw %"struct.std::_Vector_base.335", ptr %3, i32 0, i32 0
  call void @_ZNSt15__new_allocatorIN5Yosys7hashlib4poolIPN12_GLOBAL__N_18mutate_tENS1_8hash_opsIS5_EEE7entry_tEED2Ev(ptr noundef nonnull align 8 dereferenceable(24) %18) #3
  ret void

19:                                               ; preds = %1
  %20 = landingpad { ptr, i32 }
          catch ptr null
  %21 = extractvalue { ptr, i32 } %20, 0
  call void @__clang_call_terminate(ptr %21) #22
  unreachable
}

; Function Attrs: inlinehint mustprogress uwtable
define internal void @_ZSt8_DestroyIPN5Yosys7hashlib4poolIPN12_GLOBAL__N_18mutate_tENS1_8hash_opsIS5_EEE7entry_tES9_EvT_SB_RSaIT0_E(ptr noundef %0, ptr noundef %1, ptr noundef nonnull align 1 dereferenceable(1) %2) #9 {
  %4 = alloca ptr, align 8
  %5 = alloca ptr, align 8
  %6 = alloca ptr, align 8
  store ptr %0, ptr %4, align 8, !tbaa !1123
  store ptr %1, ptr %5, align 8, !tbaa !1123
  store ptr %2, ptr %6, align 8, !tbaa !1114
  %7 = load ptr, ptr %4, align 8, !tbaa !1123
  %8 = load ptr, ptr %5, align 8, !tbaa !1123
  call void @_ZSt8_DestroyIPN5Yosys7hashlib4poolIPN12_GLOBAL__N_18mutate_tENS1_8hash_opsIS5_EEE7entry_tEEvT_SB_(ptr noundef %7, ptr noundef %8)
  ret void
}

; Function Attrs: mustprogress nounwind uwtable
define internal noundef nonnull align 1 dereferenceable(1) ptr @_ZNSt12_Vector_baseIN5Yosys7hashlib4poolIPN12_GLOBAL__N_18mutate_tENS1_8hash_opsIS5_EEE7entry_tESaIS9_EE19_M_get_Tp_allocatorEv(ptr noundef nonnull align 8 dereferenceable(24) %0) #6 align 2 {
  %2 = alloca ptr, align 8
  store ptr %0, ptr %2, align 8, !tbaa !1110
  %3 = load ptr, ptr %2, align 8
  %4 = getelementptr inbounds nuw %"struct.std::_Vector_base.335", ptr %3, i32 0, i32 0
  ret ptr %4
}

; Function Attrs: mustprogress nounwind uwtable
define linkonce_odr void @_ZNSt6vectorIiSaIiEED2Ev(ptr noundef nonnull align 8 dereferenceable(24) %0) unnamed_addr #6 comdat align 2 personality ptr @__gxx_personality_v0 {
  %2 = alloca ptr, align 8
  store ptr %0, ptr %2, align 8, !tbaa !203
  %3 = load ptr, ptr %2, align 8
  %4 = getelementptr inbounds nuw %"struct.std::_Vector_base.4", ptr %3, i32 0, i32 0
  %5 = getelementptr inbounds nuw %"struct.std::_Vector_base<int, std::allocator<int>>::_Vector_impl_data", ptr %4, i32 0, i32 0
  %6 = load ptr, ptr %5, align 8, !tbaa !228
  %7 = getelementptr inbounds nuw %"struct.std::_Vector_base.4", ptr %3, i32 0, i32 0
  %8 = getelementptr inbounds nuw %"struct.std::_Vector_base<int, std::allocator<int>>::_Vector_impl_data", ptr %7, i32 0, i32 1
  %9 = load ptr, ptr %8, align 8, !tbaa !229
  %10 = call noundef nonnull align 1 dereferenceable(1) ptr @_ZNSt12_Vector_baseIiSaIiEE19_M_get_Tp_allocatorEv(ptr noundef nonnull align 8 dereferenceable(24) %3) #3
  invoke void @_ZSt8_DestroyIPiiEvT_S1_RSaIT0_E(ptr noundef %6, ptr noundef %9, ptr noundef nonnull align 1 dereferenceable(1) %10)
          to label %11 unwind label %12

11:                                               ; preds = %1
  call void @_ZNSt12_Vector_baseIiSaIiEED2Ev(ptr noundef nonnull align 8 dereferenceable(24) %3) #3
  ret void

12:                                               ; preds = %1
  %13 = landingpad { ptr, i32 }
          catch ptr null
  %14 = extractvalue { ptr, i32 } %13, 0
  call void @__clang_call_terminate(ptr %14) #22
  unreachable
}

; Function Attrs: mustprogress nounwind uwtable
define internal void @_ZNSt6vectorIN5Yosys7hashlib4poolIPN12_GLOBAL__N_18mutate_tENS1_8hash_opsIS5_EEE7entry_tESaIS9_EED2Ev(ptr noundef nonnull align 8 dereferenceable(24) %0) unnamed_addr #6 align 2 personality ptr @__gxx_personality_v0 {
  %2 = alloca ptr, align 8
  store ptr %0, ptr %2, align 8, !tbaa !1106
  %3 = load ptr, ptr %2, align 8
  %4 = getelementptr inbounds nuw %"struct.std::_Vector_base.335", ptr %3, i32 0, i32 0
  %5 = getelementptr inbounds nuw %"struct.std::_Vector_base<Yosys::hashlib::pool<(anonymous namespace)::mutate_t *>::entry_t, std::allocator<Yosys::hashlib::pool<(anonymous namespace)::mutate_t *>::entry_t>>::_Vector_impl_data", ptr %4, i32 0, i32 0
  %6 = load ptr, ptr %5, align 8, !tbaa !1108
  %7 = getelementptr inbounds nuw %"struct.std::_Vector_base.335", ptr %3, i32 0, i32 0
  %8 = getelementptr inbounds nuw %"struct.std::_Vector_base<Yosys::hashlib::pool<(anonymous namespace)::mutate_t *>::entry_t, std::allocator<Yosys::hashlib::pool<(anonymous namespace)::mutate_t *>::entry_t>>::_Vector_impl_data", ptr %7, i32 0, i32 1
  %9 = load ptr, ptr %8, align 8, !tbaa !1109
  %10 = call noundef nonnull align 1 dereferenceable(1) ptr @_ZNSt12_Vector_baseIN5Yosys7hashlib4poolIPN12_GLOBAL__N_18mutate_tENS1_8hash_opsIS5_EEE7entry_tESaIS9_EE19_M_get_Tp_allocatorEv(ptr noundef nonnull align 8 dereferenceable(24) %3) #3
  invoke void @_ZSt8_DestroyIPN5Yosys7hashlib4poolIPN12_GLOBAL__N_18mutate_tENS1_8hash_opsIS5_EEE7entry_tES9_EvT_SB_RSaIT0_E(ptr noundef %6, ptr noundef %9, ptr noundef nonnull align 1 dereferenceable(1) %10)
          to label %11 unwind label %12

11:                                               ; preds = %1
  call void @_ZNSt12_Vector_baseIN5Yosys7hashlib4poolIPN12_GLOBAL__N_18mutate_tENS1_8hash_opsIS5_EEE7entry_tESaIS9_EED2Ev(ptr noundef nonnull align 8 dereferenceable(24) %3) #3
  ret void

12:                                               ; preds = %1
  %13 = landingpad { ptr, i32 }
          catch ptr null
  %14 = extractvalue { ptr, i32 } %13, 0
  call void @__clang_call_terminate(ptr %14) #22
  unreachable
}

; Function Attrs: inlinehint mustprogress nounwind uwtable
define internal void @_ZN5Yosys7hashlib4poolIPN12_GLOBAL__N_18mutate_tENS0_8hash_opsIS4_EEED2Ev(ptr noundef nonnull align 8 dereferenceable(49) %0) unnamed_addr #7 align 2 {
  %2 = alloca ptr, align 8
  store ptr %0, ptr %2, align 8, !tbaa !1104
  %3 = load ptr, ptr %2, align 8
  %4 = getelementptr inbounds nuw %"class.Yosys::hashlib::pool.333", ptr %3, i32 0, i32 1
  call void @_ZNSt6vectorIN5Yosys7hashlib4poolIPN12_GLOBAL__N_18mutate_tENS1_8hash_opsIS5_EEE7entry_tESaIS9_EED2Ev(ptr noundef nonnull align 8 dereferenceable(24) %4) #3
  %5 = getelementptr inbounds nuw %"class.Yosys::hashlib::pool.333", ptr %3, i32 0, i32 0
  call void @_ZNSt6vectorIiSaIiEED2Ev(ptr noundef nonnull align 8 dereferenceable(24) %5) #3
  ret void
}

; Function Attrs: inlinehint mustprogress nounwind uwtable
define internal void @_ZN12_GLOBAL__N_114mutate_queue_tD2Ev(ptr noundef nonnull align 8 dereferenceable(56) %0) unnamed_addr #7 align 2 {
  %2 = alloca ptr, align 8
  store ptr %0, ptr %2, align 8, !tbaa !1086
  %3 = load ptr, ptr %2, align 8
  %4 = getelementptr inbounds nuw %"struct.(anonymous namespace)::mutate_queue_t", ptr %3, i32 0, i32 0
  call void @_ZN5Yosys7hashlib4poolIPN12_GLOBAL__N_18mutate_tENS0_8hash_opsIS4_EEED2Ev(ptr noundef nonnull align 8 dereferenceable(49) %4) #3
  ret void
}