; Function Attrs: inlinehint mustprogress nounwind uwtable
define internal fastcc void @_ZN12_GLOBAL__N_114mutate_queue_tD2Ev(ptr noundef nonnull readonly align 8 captures(none) dereferenceable(56) %0) unnamed_addr #4 align 2 personality ptr @__gxx_personality_v0 {
  %2 = getelementptr inbounds nuw i8, ptr %0, i64 24
  %.val.i = load ptr, ptr %2, align 8
  %.not.i.i.i.i = icmp eq ptr %.val.i, null
  br i1 %.not.i.i.i.i, label %_ZNSt6vectorIN5Yosys7hashlib4poolIPN12_GLOBAL__N_18mutate_tENS1_8hash_opsIS5_EEE7entry_tESaIS9_EED2Ev.exit.i, label %3

3:                                                ; preds = %1
  %4 = getelementptr inbounds nuw i8, ptr %0, i64 40
  %.val1.i = load ptr, ptr %4, align 8
  %5 = ptrtoint ptr %.val1.i to i64
  %6 = ptrtoint ptr %.val.i to i64
  %7 = sub i64 %5, %6
  tail call void @_ZdlPvm(ptr noundef nonnull %.val.i, i64 noundef %7) #31
  br label %_ZNSt6vectorIN5Yosys7hashlib4poolIPN12_GLOBAL__N_18mutate_tENS1_8hash_opsIS5_EEE7entry_tESaIS9_EED2Ev.exit.i

_ZNSt6vectorIN5Yosys7hashlib4poolIPN12_GLOBAL__N_18mutate_tENS1_8hash_opsIS5_EEE7entry_tESaIS9_EED2Ev.exit.i: ; preds = %3, %1
  %8 = load ptr, ptr %0, align 8, !tbaa !62
  %.not.i.i.i2.i = icmp eq ptr %8, null
  br i1 %.not.i.i.i2.i, label %_ZN5Yosys7hashlib4poolIPN12_GLOBAL__N_18mutate_tENS0_8hash_opsIS4_EEED2Ev.exit, label %9

9:                                                ; preds = %_ZNSt6vectorIN5Yosys7hashlib4poolIPN12_GLOBAL__N_18mutate_tENS1_8hash_opsIS5_EEE7entry_tESaIS9_EED2Ev.exit.i
  %10 = getelementptr inbounds nuw i8, ptr %0, i64 16
  %11 = load ptr, ptr %10, align 8, !tbaa !195
  %12 = ptrtoint ptr %11 to i64
  %13 = ptrtoint ptr %8 to i64
  %14 = sub i64 %12, %13
  tail call void @_ZdlPvm(ptr noundef nonnull %8, i64 noundef %14) #31
  br label %_ZN5Yosys7hashlib4poolIPN12_GLOBAL__N_18mutate_tENS0_8hash_opsIS4_EEED2Ev.exit

_ZN5Yosys7hashlib4poolIPN12_GLOBAL__N_18mutate_tENS0_8hash_opsIS4_EEED2Ev.exit: ; preds = %_ZNSt6vectorIN5Yosys7hashlib4poolIPN12_GLOBAL__N_18mutate_tENS1_8hash_opsIS5_EEE7entry_tESaIS9_EED2Ev.exit.i, %9
  ret void
}